; Function Attrs: mustprogress nofree norecurse nosync nounwind willreturn memory(read, argmem: none, inaccessiblemem: none) uwtable
define noundef i64 @_ZN5faiss17InterruptCallback15get_period_hintEm(i64 noundef %0) local_unnamed_addr #18 align 2 {
  %2 = load ptr, ptr @_ZN5faiss17InterruptCallback8instanceE, align 8
  %.not = icmp eq ptr %2, null
  br i1 %.not, label %7, label %3

3:                                                ; preds = %1
  %4 = add i64 %0, 1
  %5 = udiv i64 100000000, %4
  %6 = icmp ugt i64 %4, 100000000
  %.sroa.speculated = select i1 %6, i64 1, i64 %5
  br label %7

7:                                                ; preds = %1, %3
  %.0 = phi i64 [ %.sroa.speculated, %3 ], [ 1073741824, %1 ]
  ret i64 %.0
}